; Function Attrs: mustprogress nounwind uwtable
define hidden void @_ZN4cvc58internal11NodeBuilderD2Ev(ptr noundef nonnull align 8 dereferenceable(116) %this) unnamed_addr #5 align 2 personality ptr @__gxx_personality_v0 {
entry:
  %d_nv.i = getelementptr inbounds i8, ptr %this, i64 96
  %0 = load ptr, ptr %d_nv.i, align 8
  %cmp.not.i = icmp ne ptr %0, %this
  %cmp3.i = icmp ne ptr %0, null
  %spec.select.i = and i1 %cmp.not.i, %cmp3.i
  br i1 %spec.select.i, label %if.then, label %if.else

if.then:                                          ; preds = %entry
  %d_nchildren.i6.i = getelementptr inbounds i8, ptr %0, i64 12
  %bf.load.i7.i = load i32, ptr %d_nchildren.i6.i, align 4
  %bf.clear.i8.i = and i32 %bf.load.i7.i, 67108863
  %cmp.not11.i = icmp eq i32 %bf.clear.i8.i, 0
  br i1 %cmp.not11.i, label %_ZN4cvc58internal11NodeBuilder7deallocEv.exit, label %for.body.preheader.i

for.body.preheader.i:                             ; preds = %if.then
  %d_children.i.i = getelementptr inbounds i8, ptr %0, i64 16
  br label %for.body.i

for.body.i:                                       ; preds = %_ZN4cvc58internal4expr9NodeValue3decEv.exit.i, %for.body.preheader.i
  %i.012.i = phi ptr [ %incdec.ptr.i, %_ZN4cvc58internal4expr9NodeValue3decEv.exit.i ], [ %d_children.i.i, %for.body.preheader.i ]
  %1 = load ptr, ptr %i.012.i, align 8
  %bf.load.i4.i = load i64, ptr %1, align 8
  %2 = and i64 %bf.load.i4.i, 1152920405095219200
  %cmp.not.i.i = icmp eq i64 %2, 1152920405095219200
  br i1 %cmp.not.i.i, label %_ZN4cvc58internal4expr9NodeValue3decEv.exit.i, label %if.then.i.i

if.then.i.i:                                      ; preds = %for.body.i
  %bf.value.i.i = add i64 %bf.load.i4.i, 1152920405095219200
  %bf.shl.i.i = and i64 %bf.value.i.i, 1152920405095219200
  %bf.clear7.i.i = and i64 %bf.load.i4.i, -1152920405095219201
  %bf.set.i.i = or disjoint i64 %bf.shl.i.i, %bf.clear7.i.i
  store i64 %bf.set.i.i, ptr %1, align 8
  %cmp12.i.i = icmp eq i64 %bf.shl.i.i, 0
  br i1 %cmp12.i.i, label %if.then13.i.i, label %_ZN4cvc58internal4expr9NodeValue3decEv.exit.i

if.then13.i.i:                                    ; preds = %if.then.i.i
  invoke void @_ZN4cvc58internal4expr9NodeValue15markForDeletionEv(ptr noundef nonnull align 8 dereferenceable(16) %1)
          to label %_ZN4cvc58internal4expr9NodeValue3decEv.exit.i unwind label %terminate.lpad.loopexit

_ZN4cvc58internal4expr9NodeValue3decEv.exit.i:    ; preds = %if.then13.i.i, %if.then.i.i, %for.body.i
  %incdec.ptr.i = getelementptr inbounds i8, ptr %i.012.i, i64 8
  %3 = load ptr, ptr %d_nv.i, align 8
  %d_children.i3.i = getelementptr inbounds i8, ptr %3, i64 16
  %d_nchildren.i.i = getelementptr inbounds i8, ptr %3, i64 12
  %bf.load.i.i = load i32, ptr %d_nchildren.i.i, align 4
  %bf.clear.i.i = and i32 %bf.load.i.i, 67108863
  %idx.ext.i.i = zext nneg i32 %bf.clear.i.i to i64
  %add.ptr.i.i = getelementptr inbounds ptr, ptr %d_children.i3.i, i64 %idx.ext.i.i
  %cmp.not.i2 = icmp eq ptr %incdec.ptr.i, %add.ptr.i.i
  br i1 %cmp.not.i2, label %_ZN4cvc58internal11NodeBuilder7deallocEv.exit, label %for.body.i, !llvm.loop !6

_ZN4cvc58internal11NodeBuilder7deallocEv.exit:    ; preds = %_ZN4cvc58internal4expr9NodeValue3decEv.exit.i, %if.then
  %.lcssa.i = phi ptr [ %0, %if.then ], [ %3, %_ZN4cvc58internal4expr9NodeValue3decEv.exit.i ]
  tail call void @free(ptr noundef nonnull %.lcssa.i) #23
  store ptr %this, ptr %d_nv.i, align 8
  %d_nvMaxChildren.i = getelementptr inbounds i8, ptr %this, i64 112
  store i32 10, ptr %d_nvMaxChildren.i, align 8
  br label %if.end7

if.else:                                          ; preds = %entry
  %cmp.i = icmp eq ptr %0, null
  br i1 %cmp.i, label %if.end7, label %if.then5

if.then5:                                         ; preds = %if.else
  %d_children.i.ptr.i = getelementptr inbounds i8, ptr %this, i64 16
  %d_nchildren.i.i4 = getelementptr inbounds i8, ptr %this, i64 12
  %bf.load.i5.i = load i32, ptr %d_nchildren.i.i4, align 4
  %bf.clear.i6.i = and i32 %bf.load.i5.i, 67108863
  %cmp.not9.i = icmp eq i32 %bf.clear.i6.i, 0
  br i1 %cmp.not9.i, label %_ZN4cvc58internal11NodeBuilder13decrRefCountsEv.exit, label %for.body.i5

for.body.i5:                                      ; preds = %if.then5, %_ZN4cvc58internal4expr9NodeValue3decEv.exit.i14
  %i.010.i = phi ptr [ %incdec.ptr.i15, %_ZN4cvc58internal4expr9NodeValue3decEv.exit.i14 ], [ %d_children.i.ptr.i, %if.then5 ]
  %4 = load ptr, ptr %i.010.i, align 8
  %bf.load.i4.i6 = load i64, ptr %4, align 8
  %5 = and i64 %bf.load.i4.i6, 1152920405095219200
  %cmp.not.i.i7 = icmp eq i64 %5, 1152920405095219200
  br i1 %cmp.not.i.i7, label %_ZN4cvc58internal4expr9NodeValue3decEv.exit.i14, label %if.then.i.i8

if.then.i.i8:                                     ; preds = %for.body.i5
  %bf.value.i.i9 = add i64 %bf.load.i4.i6, 1152920405095219200
  %bf.shl.i.i10 = and i64 %bf.value.i.i9, 1152920405095219200
  %bf.clear7.i.i11 = and i64 %bf.load.i4.i6, -1152920405095219201
  %bf.set.i.i12 = or disjoint i64 %bf.shl.i.i10, %bf.clear7.i.i11
  store i64 %bf.set.i.i12, ptr %4, align 8
  %cmp12.i.i13 = icmp eq i64 %bf.shl.i.i10, 0
  br i1 %cmp12.i.i13, label %if.then13.i.i21, label %_ZN4cvc58internal4expr9NodeValue3decEv.exit.i14

if.then13.i.i21:                                  ; preds = %if.then.i.i8
  invoke void @_ZN4cvc58internal4expr9NodeValue15markForDeletionEv(ptr noundef nonnull align 8 dereferenceable(16) %4)
          to label %_ZN4cvc58internal4expr9NodeValue3decEv.exit.i14 unwind label %terminate.lpad.loopexit.split-lp

_ZN4cvc58internal4expr9NodeValue3decEv.exit.i14:  ; preds = %if.then13.i.i21, %if.then.i.i8, %for.body.i5
  %incdec.ptr.i15 = getelementptr inbounds i8, ptr %i.010.i, i64 8
  %bf.load.i.i16 = load i32, ptr %d_nchildren.i.i4, align 4
  %bf.clear.i.i17 = and i32 %bf.load.i.i16, 67108863
  %idx.ext.i.i18 = zext nneg i32 %bf.clear.i.i17 to i64
  %add.ptr.i.i19 = getelementptr inbounds ptr, ptr %d_children.i.ptr.i, i64 %idx.ext.i.i18
  %cmp.not.i20 = icmp eq ptr %incdec.ptr.i15, %add.ptr.i.i19
  br i1 %cmp.not.i20, label %_ZN4cvc58internal11NodeBuilder13decrRefCountsEv.exit, label %for.body.i5, !llvm.loop !7

_ZN4cvc58internal11NodeBuilder13decrRefCountsEv.exit: ; preds = %_ZN4cvc58internal4expr9NodeValue3decEv.exit.i14, %if.then5
  %bf.load.i.lcssa.i = phi i32 [ %bf.load.i5.i, %if.then5 ], [ %bf.load.i.i16, %_ZN4cvc58internal4expr9NodeValue3decEv.exit.i14 ]
  %bf.clear.i = and i32 %bf.load.i.lcssa.i, -67108864
  store i32 %bf.clear.i, ptr %d_nchildren.i.i4, align 4
  br label %if.end7

if.end7:                                          ; preds = %_ZN4cvc58internal11NodeBuilder13decrRefCountsEv.exit, %_ZN4cvc58internal11NodeBuilder7deallocEv.exit, %if.else
  ret void

terminate.lpad.loopexit:                          ; preds = %if.then13.i.i
  %lpad.loopexit = landingpad { ptr, i32 }
          catch ptr null
  br label %terminate.lpad

terminate.lpad.loopexit.split-lp:                 ; preds = %if.then13.i.i21
  %lpad.loopexit.split-lp = landingpad { ptr, i32 }
          catch ptr null
  br label %terminate.lpad

terminate.lpad:                                   ; preds = %terminate.lpad.loopexit.split-lp, %terminate.lpad.loopexit
  %lpad.phi = phi { ptr, i32 } [ %lpad.loopexit, %terminate.lpad.loopexit ], [ %lpad.loopexit.split-lp, %terminate.lpad.loopexit.split-lp ]
  %6 = extractvalue { ptr, i32 } %lpad.phi, 0
  tail call void @__clang_call_terminate(ptr %6) #24
  unreachable
}